; Function Attrs: mustprogress nofree norecurse nosync nounwind willreturn memory(argmem: write) uwtable
define dso_local void @jq_halt(ptr noundef writeonly captures(none) initializes((136, 140), (144, 176)) %0, i64 %1, ptr %2, i64 %3, ptr %4) local_unnamed_addr #9 {
  %6 = getelementptr inbounds nuw i8, ptr %0, i64 136
  store i32 1, ptr %6, align 8, !tbaa !46
  %7 = getelementptr inbounds nuw i8, ptr %0, i64 144
  store i64 %1, ptr %7, align 8
  %.sroa.24.0..sroa_idx = getelementptr inbounds nuw i8, ptr %0, i64 152
  store ptr %2, ptr %.sroa.24.0..sroa_idx, align 8, !tbaa !19
  %8 = getelementptr inbounds nuw i8, ptr %0, i64 160
  store i64 %3, ptr %8, align 8
  %.sroa.2.0..sroa_idx = getelementptr inbounds nuw i8, ptr %0, i64 168
  store ptr %4, ptr %.sroa.2.0..sroa_idx, align 8, !tbaa !19
  ret void
}